; Function Attrs: mustprogress nounwind uwtable
define hidden void @_ZN27JvmtiVTMSTransitionDisablerC2EP8_jobject(ptr nocapture noundef nonnull align 8 dereferenceable(16) %0, ptr noundef %1) unnamed_addr #0 align 2 {
  store i8 0, ptr %0, align 8
  %3 = getelementptr inbounds i8, ptr %0, i64 8
  store ptr %1, ptr %3, align 8
  %4 = tail call noundef zeroext i1 @_ZN13Continuations7enabledEv() #13
  %5 = tail call align 8 ptr @llvm.threadlocal.address.p0(ptr align 8 @_ZN6Thread12_thr_currentE)
  %6 = load ptr, ptr %5, align 8
  %7 = icmp ne ptr %6, null
  %or.cond.not = select i1 %4, i1 %7, i1 false
  br i1 %or.cond.not, label %8, label %17

8:                                                ; preds = %2
  %9 = load volatile i8, ptr @_ZN27JvmtiVTMSTransitionDisabler34_sync_protocol_enabled_permanentlyE, align 1
  %10 = trunc i8 %9 to i1
  br i1 %10, label %13, label %11

11:                                               ; preds = %8
  %12 = tail call noundef i32 asm sideeffect "lock xaddl $0,($2)", "=r,0,r,~{cc},~{memory},~{dirflag},~{fpsr},~{flags}"(i32 1, ptr nonnull @_ZN27JvmtiVTMSTransitionDisabler28_sync_protocol_enabled_countE) #13, !srcloc !12
  br label %13

13:                                               ; preds = %11, %8
  %14 = load ptr, ptr %3, align 8
  %.not = icmp eq ptr %14, null
  br i1 %.not, label %16, label %15

15:                                               ; preds = %13
  tail call void @_ZN27JvmtiVTMSTransitionDisabler31VTMS_transition_disable_for_oneEv(ptr noundef nonnull align 8 dereferenceable(16) %0)
  br label %17

16:                                               ; preds = %13
  tail call void @_ZN27JvmtiVTMSTransitionDisabler31VTMS_transition_disable_for_allEv(ptr noundef nonnull align 8 dereferenceable(16) %0)
  br label %17

17:                                               ; preds = %2, %16, %15
  ret void
}